cnumpy.core.multiarray
_reconstruct
p0
(cnumpy
ndarray
p1
(I0
tp2
S'b'
p3
tp4
Rp5
(I1
(L3L
L2L
L11L
tp6
cnumpy
dtype
p7
(S'O8'
p8
I0
I1
tp9
Rp10
(I3
S'|'
p11
NNNI-1
I-1
I63
tp12
bI01
(lp13
g0
(g1
(I0
tp14
g3
tp15
Rp16
(I1
(L4L
L1L
tp17
g7
(S'u2'
p18
I0
I1
tp19
Rp20
(I3
S'<'
p21
NNNI-1
I-1
I0
tp22
bI01
S',\x01\x07\x00\n\x00c\x01'
p23
tp24
bag0
(g1
(I0
tp25
g3
tp26
Rp27
(I1
(L4L
L1L
tp28
g20
I01
S',\x01\x07\x00\n\x00c\x01'
p29
tp30
bag0
(g1
(I0
tp31
g3
tp32
Rp33
(I1
(L4L
L1L
tp34
g20
I01
S',\x01\x06\x00\n\x00c\x01'
p35
tp36
bag0
(g1
(I0
tp37
g3
tp38
Rp39
(I1
(L4L
L1L
tp40
g20
I01
S',\x01\x06\x00\n\x00c\x01'
p41
tp42
bag0
(g1
(I0
tp43
g3
tp44
Rp45
(I1
(L4L
L1L
tp46
g20
I01
S',\x01\x06\x00\n\x00c\x01'
p47
tp48
bag0
(g1
(I0
tp49
g3
tp50
Rp51
(I1
(L4L
L1L
tp52
g20
I01
S',\x01\x05\x00\n\x00c\x01'
p53
tp54
bag0
(g1
(I0
tp55
g3
tp56
Rp57
(I1
(L4L
L1L
tp58
g20
I01
S',\x01\x05\x00\n\x00c\x01'
p59
tp60
bag0
(g1
(I0
tp61
g3
tp62
Rp63
(I1
(L4L
L1L
tp64
g20
I01
S',\x01\x05\x00\n\x00c\x01'
p65
tp66
bag0
(g1
(I0
tp67
g3
tp68
Rp69
(I1
(L4L
L1L
tp70
g20
I01
S',\x01\x05\x00\n\x00c\x01'
p71
tp72
bag0
(g1
(I0
tp73
g3
tp74
Rp75
(I1
(L4L
L1L
tp76
g20
I01
S',\x01\x04\x00\n\x00c\x01'
p77
tp78
bag0
(g1
(I0
tp79
g3
tp80
Rp81
(I1
(L4L
L1L
tp82
g20
I01
S',\x01\x04\x00\n\x00c\x01'
p83
tp84
bag0
(g1
(I0
tp85
g3
tp86
Rp87
(I1
(L4L
L1L
tp88
g20
I01
S'\xf4\x01\x0b\x00\n\x00c\x01'
p89
tp90
bag0
(g1
(I0
tp91
g3
tp92
Rp93
(I1
(L4L
L1L
tp94
g20
I01
S'\xf4\x01\x0b\x00\n\x00c\x01'
p95
tp96
bag0
(g1
(I0
tp97
g3
tp98
Rp99
(I1
(L4L
L1L
tp100
g20
I01
S'\xf4\x01\n\x00\n\x00c\x01'
p101
tp102
bag0
(g1
(I0
tp103
g3
tp104
Rp105
(I1
(L4L
L1L
tp106
g20
I01
S'\xf4\x01\t\x00\n\x00c\x01'
p107
tp108
bag0
(g1
(I0
tp109
g3
tp110
Rp111
(I1
(L4L
L1L
tp112
g20
I01
S'\xf4\x01\t\x00\n\x00c\x01'
p113
tp114
bag0
(g1
(I0
tp115
g3
tp116
Rp117
(I1
(L4L
L1L
tp118
g20
I01
S'\xf4\x01\x08\x00\n\x00c\x01'
p119
tp120
bag0
(g1
(I0
tp121
g3
tp122
Rp123
(I1
(L4L
L1L
tp124
g20
I01
S'\xf4\x01\x08\x00\n\x00c\x01'
p125
tp126
bag0
(g1
(I0
tp127
g3
tp128
Rp129
(I1
(L4L
L1L
tp130
g20
I01
S'\xf4\x01\x08\x00\n\x00c\x01'
p131
tp132
bag0
(g1
(I0
tp133
g3
tp134
Rp135
(I1
(L4L
L1L
tp136
g20
I01
S'\xf4\x01\x07\x00\n\x00c\x01'
p137
tp138
bag0
(g1
(I0
tp139
g3
tp140
Rp141
(I1
(L4L
L1L
tp142
g20
I01
S'\xf4\x01\x07\x00\n\x00c\x01'
p143
tp144
bag0
(g1
(I0
tp145
g3
tp146
Rp147
(I1
(L4L
L1L
tp148
g20
I01
S'\xf4\x01\x07\x00\n\x00c\x01'
p149
tp150
bag0
(g1
(I0
tp151
g3
tp152
Rp153
(I1
(L4L
L1L
tp154
g20
I01
S',\x01\x07\x00\n\x00c\x01'
p155
tp156
bag0
(g1
(I0
tp157
g3
tp158
Rp159
(I1
(L4L
L1L
tp160
g20
I01
S',\x01\x07\x00\n\x00c\x01'
p161
tp162
bag0
(g1
(I0
tp163
g3
tp164
Rp165
(I1
(L4L
L1L
tp166
g20
I01
S',\x01\x06\x00\n\x00c\x01'
p167
tp168
bag0
(g1
(I0
tp169
g3
tp170
Rp171
(I1
(L4L
L1L
tp172
g20
I01
S',\x01\x06\x00\n\x00c\x01'
p173
tp174
bag0
(g1
(I0
tp175
g3
tp176
Rp177
(I1
(L4L
L1L
tp178
g20
I01
S',\x01\x06\x00\n\x00c\x01'
p179
tp180
bag0
(g1
(I0
tp181
g3
tp182
Rp183
(I1
(L4L
L1L
tp184
g20
I01
S',\x01\x05\x00\n\x00c\x01'
p185
tp186
bag0
(g1
(I0
tp187
g3
tp188
Rp189
(I1
(L4L
L1L
tp190
g20
I01
S',\x01\x05\x00\n\x00c\x01'
p191
tp192
bag0
(g1
(I0
tp193
g3
tp194
Rp195
(I1
(L4L
L1L
tp196
g20
I01
S',\x01\x05\x00\n\x00c\x01'
p197
tp198
bag0
(g1
(I0
tp199
g3
tp200
Rp201
(I1
(L4L
L1L
tp202
g20
I01
S',\x01\x05\x00\n\x00c\x01'
p203
tp204
bag0
(g1
(I0
tp205
g3
tp206
Rp207
(I1
(L4L
L1L
tp208
g20
I01
S',\x01\x04\x00\n\x00c\x01'
p209
tp210
bag0
(g1
(I0
tp211
g3
tp212
Rp213
(I1
(L4L
L1L
tp214
g20
I01
S',\x01\x04\x00\n\x00c\x01'
p215
tp216
bag0
(g1
(I0
tp217
g3
tp218
Rp219
(I1
(L4L
L1L
tp220
g20
I01
S'\xf4\x01\x0b\x00\n\x00c\x01'
p221
tp222
bag0
(g1
(I0
tp223
g3
tp224
Rp225
(I1
(L4L
L1L
tp226
g20
I01
S'\xf4\x01\x0b\x00\n\x00c\x01'
p227
tp228
bag0
(g1
(I0
tp229
g3
tp230
Rp231
(I1
(L4L
L1L
tp232
g20
I01
S'\xf4\x01\n\x00\n\x00c\x01'
p233
tp234
bag0
(g1
(I0
tp235
g3
tp236
Rp237
(I1
(L4L
L1L
tp238
g20
I01
S'\xf4\x01\t\x00\n\x00c\x01'
p239
tp240
bag0
(g1
(I0
tp241
g3
tp242
Rp243
(I1
(L4L
L1L
tp244
g20
I01
S'\xf4\x01\t\x00\n\x00c\x01'
p245
tp246
bag0
(g1
(I0
tp247
g3
tp248
Rp249
(I1
(L4L
L1L
tp250
g20
I01
S'\xf4\x01\x08\x00\n\x00c\x01'
p251
tp252
bag0
(g1
(I0
tp253
g3
tp254
Rp255
(I1
(L4L
L1L
tp256
g20
I01
S'\xf4\x01\x08\x00\n\x00c\x01'
p257
tp258
bag0
(g1
(I0
tp259
g3
tp260
Rp261
(I1
(L4L
L1L
tp262
g20
I01
S'\xf4\x01\x08\x00\n\x00c\x01'
p263
tp264
bag0
(g1
(I0
tp265
g3
tp266
Rp267
(I1
(L4L
L1L
tp268
g20
I01
S'\xf4\x01\x07\x00\n\x00c\x01'
p269
tp270
bag0
(g1
(I0
tp271
g3
tp272
Rp273
(I1
(L4L
L1L
tp274
g20
I01
S'\xf4\x01\x07\x00\n\x00c\x01'
p275
tp276
bag0
(g1
(I0
tp277
g3
tp278
Rp279
(I1
(L4L
L1L
tp280
g20
I01
S'\xf4\x01\x07\x00\n\x00c\x01'
p281
tp282
bag0
(g1
(I0
tp283
g3
tp284
Rp285
(I1
(L4L
L1L
tp286
g20
I01
S',\x01\x07\x00\n\x00c\x01'
p287
tp288
bag0
(g1
(I0
tp289
g3
tp290
Rp291
(I1
(L4L
L1L
tp292
g20
I01
S',\x01\x07\x00\n\x00c\x01'
p293
tp294
bag0
(g1
(I0
tp295
g3
tp296
Rp297
(I1
(L4L
L1L
tp298
g20
I01
S',\x01\x06\x00\n\x00c\x01'
p299
tp300
bag0
(g1
(I0
tp301
g3
tp302
Rp303
(I1
(L4L
L1L
tp304
g20
I01
S',\x01\x06\x00\n\x00c\x01'
p305
tp306
bag0
(g1
(I0
tp307
g3
tp308
Rp309
(I1
(L4L
L1L
tp310
g20
I01
S',\x01\x06\x00\n\x00c\x01'
p311
tp312
bag0
(g1
(I0
tp313
g3
tp314
Rp315
(I1
(L4L
L1L
tp316
g20
I01
S',\x01\x05\x00\n\x00c\x01'
p317
tp318
bag0
(g1
(I0
tp319
g3
tp320
Rp321
(I1
(L4L
L1L
tp322
g20
I01
S',\x01\x05\x00\n\x00c\x01'
p323
tp324
bag0
(g1
(I0
tp325
g3
tp326
Rp327
(I1
(L4L
L1L
tp328
g20
I01
S',\x01\x05\x00\n\x00c\x01'
p329
tp330
bag0
(g1
(I0
tp331
g3
tp332
Rp333
(I1
(L4L
L1L
tp334
g20
I01
S',\x01\x05\x00\n\x00c\x01'
p335
tp336
bag0
(g1
(I0
tp337
g3
tp338
Rp339
(I1
(L4L
L1L
tp340
g20
I01
S',\x01\x04\x00\n\x00c\x01'
p341
tp342
bag0
(g1
(I0
tp343
g3
tp344
Rp345
(I1
(L4L
L1L
tp346
g20
I01
S',\x01\x04\x00\n\x00c\x01'
p347
tp348
bag0
(g1
(I0
tp349
g3
tp350
Rp351
(I1
(L4L
L1L
tp352
g20
I01
S'\xf4\x01\x0b\x00\n\x00c\x01'
p353
tp354
bag0
(g1
(I0
tp355
g3
tp356
Rp357
(I1
(L4L
L1L
tp358
g20
I01
S'\xf4\x01\x0b\x00\n\x00c\x01'
p359
tp360
bag0
(g1
(I0
tp361
g3
tp362
Rp363
(I1
(L4L
L1L
tp364
g20
I01
S'\xf4\x01\n\x00\n\x00c\x01'
p365
tp366
bag0
(g1
(I0
tp367
g3
tp368
Rp369
(I1
(L4L
L1L
tp370
g20
I01
S'\xf4\x01\t\x00\n\x00c\x01'
p371
tp372
bag0
(g1
(I0
tp373
g3
tp374
Rp375
(I1
(L4L
L1L
tp376
g20
I01
S'\xf4\x01\t\x00\n\x00c\x01'
p377
tp378
bag0
(g1
(I0
tp379
g3
tp380
Rp381
(I1
(L4L
L1L
tp382
g20
I01
S'\xf4\x01\x08\x00\n\x00c\x01'
p383
tp384
bag0
(g1
(I0
tp385
g3
tp386
Rp387
(I1
(L4L
L1L
tp388
g20
I01
S'\xf4\x01\x08\x00\n\x00c\x01'
p389
tp390
bag0
(g1
(I0
tp391
g3
tp392
Rp393
(I1
(L4L
L1L
tp394
g20
I01
S'\xf4\x01\x08\x00\n\x00c\x01'
p395
tp396
bag0
(g1
(I0
tp397
g3
tp398
Rp399
(I1
(L4L
L1L
tp400
g20
I01
S'\xf4\x01\x07\x00\n\x00c\x01'
p401
tp402
bag0
(g1
(I0
tp403
g3
tp404
Rp405
(I1
(L4L
L1L
tp406
g20
I01
S'\xf4\x01\x07\x00\n\x00c\x01'
p407
tp408
bag0
(g1
(I0
tp409
g3
tp410
Rp411
(I1
(L4L
L1L
tp412
g20
I01
S'\xf4\x01\x07\x00\n\x00c\x01'
p413
tp414
batp415
b.